(dp0
S'Companion'
p1
(F100.0
F50.0
tp2
sS'WindowDTC'
p3
(F510.0
F465.0
tp4
sS'ControlDTC'
p5
(F440.0
F255.0
tp6
sS'CodeCompanion'
p7
(F65.0
F200.0
tp8
sS'UtilityDTC'
p9
(F90.0
F365.0
tp10
sS'ContainerDTC'
p11
(F375.0
F610.0
tp12
sS'DesignTimeCompanion'
p13
(F240.0
F200.0
tp14
sS'ChoicedDTC'
p15
(F590.0
F605.0
tp16
sS'TestDTC'
p17
(F355.0
F470.0
tp18
sS'HelperDTC'
p19
(F150.0
F550.0
tp20
s.