(dp0
S'HelpCompanions'
p1
(F305.0
F530.0
tp2
sS'Constructors'
p3
(F90.0
F515.0
tp4
sS'BaseCompanions'
p5
(F355.0
F320.0
tp6
sS'EventCollections'
p7
(F380.0
F175.0
tp8
sS'UtilCompanions'
p9
(F80.0
F145.0
tp10
sS'Companions'
p11
(F225.0
F85.0
tp12
sS'DialogCompanions'
p13
(F540.0
F320.0
tp14
s.